; Function Attrs: mustprogress nofree norecurse nosync nounwind memory(argmem: readwrite) uwtable
define dso_local void @_ZN29btGeneric6DofSpringConstraint21internalUpdateSpringsEPN17btTypedConstraint17btConstraintInfo2E(ptr nocapture noundef nonnull align 8 dereferenceable(1412) %this, ptr nocapture noundef readonly %info) local_unnamed_addr #5 align 2 {
entry:
  %m_springEnabled = getelementptr inbounds i8, ptr %this, i64 1333
  %m_calculatedLinearDiff = getelementptr inbounds i8, ptr %this, i64 1280
  %m_equilibriumPoint = getelementptr inbounds i8, ptr %this, i64 1340
  %m_springStiffness = getelementptr inbounds i8, ptr %this, i64 1364
  %m_springDamping = getelementptr inbounds i8, ptr %this, i64 1388
  %m_numIterations = getelementptr inbounds i8, ptr %info, i64 80
  %m_targetVelocity = getelementptr inbounds i8, ptr %this, i64 816
  %m_maxMotorForce = getelementptr inbounds i8, ptr %this, i64 832
  br label %for.body

for.cond20.preheader:                             ; preds = %for.inc
  %m_calculatedAxisAngleDiff = getelementptr inbounds i8, ptr %this, i64 1216
  %m_angularLimits = getelementptr inbounds i8, ptr %this, i64 892
  br label %for.body22

for.body:                                         ; preds = %entry, %for.inc
  %indvars.iv = phi i64 [ 0, %entry ], [ %indvars.iv.next, %for.inc ]
  %arrayidx = getelementptr inbounds [6 x i8], ptr %m_springEnabled, i64 0, i64 %indvars.iv
  %0 = load i8, ptr %arrayidx, align 1
  %1 = and i8 %0, 1
  %tobool.not = icmp eq i8 %1, 0
  br i1 %tobool.not, label %for.inc, label %if.then

if.then:                                          ; preds = %for.body
  %arrayidx3 = getelementptr inbounds float, ptr %m_calculatedLinearDiff, i64 %indvars.iv
  %2 = load float, ptr %arrayidx3, align 4
  %arrayidx5 = getelementptr inbounds [6 x float], ptr %m_equilibriumPoint, i64 0, i64 %indvars.iv
  %3 = load float, ptr %arrayidx5, align 4
  %sub = fsub float %2, %3
  %arrayidx7 = getelementptr inbounds [6 x float], ptr %m_springStiffness, i64 0, i64 %indvars.iv
  %4 = load float, ptr %arrayidx7, align 4
  %mul = fmul float %sub, %4
  %5 = load float, ptr %info, align 8
  %arrayidx9 = getelementptr inbounds [6 x float], ptr %m_springDamping, i64 0, i64 %indvars.iv
  %6 = load float, ptr %arrayidx9, align 4
  %mul10 = fmul float %5, %6
  %7 = load i32, ptr %m_numIterations, align 8
  %conv = sitofp i32 %7 to float
  %div = fdiv float %mul10, %conv
  %mul11 = fmul float %mul, %div
  %arrayidx14 = getelementptr inbounds float, ptr %m_targetVelocity, i64 %indvars.iv
  store float %mul11, ptr %arrayidx14, align 4
  %8 = tail call noundef float @llvm.fabs.f32(float %mul)
  %arrayidx19 = getelementptr inbounds float, ptr %m_maxMotorForce, i64 %indvars.iv
  store float %8, ptr %arrayidx19, align 4
  br label %for.inc

for.inc:                                          ; preds = %for.body, %if.then
  %indvars.iv.next = add nuw nsw i64 %indvars.iv, 1
  %exitcond.not = icmp eq i64 %indvars.iv.next, 3
  br i1 %exitcond.not, label %for.cond20.preheader, label %for.body, !llvm.loop !9

for.body22:                                       ; preds = %for.cond20.preheader, %for.inc64
  %indvars.iv26 = phi i64 [ 0, %for.cond20.preheader ], [ %indvars.iv.next27, %for.inc64 ]
  %9 = add nuw nsw i64 %indvars.iv26, 3
  %arrayidx25 = getelementptr inbounds [6 x i8], ptr %m_springEnabled, i64 0, i64 %9
  %10 = load i8, ptr %arrayidx25, align 1
  %11 = and i8 %10, 1
  %tobool26.not = icmp eq i8 %11, 0
  br i1 %tobool26.not, label %for.inc64, label %if.then27

if.then27:                                        ; preds = %for.body22
  %arrayidx31 = getelementptr inbounds float, ptr %m_calculatedAxisAngleDiff, i64 %indvars.iv26
  %12 = load float, ptr %arrayidx31, align 4
  %arrayidx36 = getelementptr inbounds [6 x float], ptr %m_equilibriumPoint, i64 0, i64 %9
  %13 = load float, ptr %arrayidx36, align 4
  %sub37 = fsub float %12, %13
  %fneg = fneg float %sub37
  %arrayidx42 = getelementptr inbounds [6 x float], ptr %m_springStiffness, i64 0, i64 %9
  %14 = load float, ptr %arrayidx42, align 4
  %mul43 = fmul float %14, %fneg
  %15 = load float, ptr %info, align 8
  %arrayidx49 = getelementptr inbounds [6 x float], ptr %m_springDamping, i64 0, i64 %9
  %16 = load float, ptr %arrayidx49, align 4
  %mul50 = fmul float %15, %16
  %17 = load i32, ptr %m_numIterations, align 8
  %conv52 = sitofp i32 %17 to float
  %div53 = fdiv float %mul50, %conv52
  %mul54 = fmul float %mul43, %div53
  %arrayidx56 = getelementptr inbounds [3 x %class.btRotationalLimitMotor], ptr %m_angularLimits, i64 0, i64 %indvars.iv26
  %m_targetVelocity57 = getelementptr inbounds i8, ptr %arrayidx56, i64 8
  store float %mul54, ptr %m_targetVelocity57, align 4
  %18 = tail call noundef float @llvm.fabs.f32(float %mul43)
  %m_maxMotorForce62 = getelementptr inbounds i8, ptr %arrayidx56, i64 12
  store float %18, ptr %m_maxMotorForce62, align 8
  br label %for.inc64

for.inc64:                                        ; preds = %for.body22, %if.then27
  %indvars.iv.next27 = add nuw nsw i64 %indvars.iv26, 1
  %exitcond30.not = icmp eq i64 %indvars.iv.next27, 3
  br i1 %exitcond30.not, label %for.end66, label %for.body22, !llvm.loop !10

for.end66:                                        ; preds = %for.inc64
  ret void
}